target datalayout = "e-m:e-p270:32:32-p271:32:32-p272:64:64-i64:64-i128:128-f80:128-n8:16:32:64-S128"
target triple = "x86_64-pc-linux-gnu"

%struct.__sigset_t = type { [16 x i64] }
%struct.sigaction = type { %union.anon, %struct.__sigset_t, i32, ptr }
%union.anon = type { ptr }
%union.pthread_cond_t = type { %struct.__pthread_cond_s }
%struct.__pthread_cond_s = type { %union.__atomic_wide_counter, %union.__atomic_wide_counter, [2 x i32], [2 x i32], i32, i32, [2 x i32] }
%union.__atomic_wide_counter = type { i64 }
%union.pthread_mutex_t = type { %struct.__pthread_mutex_s }
%struct.__pthread_mutex_s = type { i32, i32, i32, i32, i32, i16, i16, %struct.__pthread_internal_list }
%struct.__pthread_internal_list = type { ptr, ptr }

@jvmsigs = internal global %struct.__sigset_t zeroinitializer, align 8
@jvm_signal_installed = internal global i8 0, align 1
@sact = internal global [65 x %struct.sigaction] zeroinitializer, align 16
@jvm_signal_installing = internal global i8 0, align 1
@tid = internal global i64 0, align 8
@cond = internal global %union.pthread_cond_t zeroinitializer, align 8
@.str.3 = private unnamed_addr constant [4 x i8] c"%s\0A\00", align 1
@mutex = internal global %union.pthread_mutex_t zeroinitializer, align 8
@os_sigaction = internal global ptr null, align 8
@.str.4 = private unnamed_addr constant [10 x i8] c"sigaction\00", align 1

; Function Attrs: nounwind uwtable
define internal i32 @call_os_sigaction(i32 noundef %0, ptr noundef %1, ptr noundef %2) #0 {
  %4 = alloca i32, align 4
  %5 = alloca ptr, align 8
  %6 = alloca ptr, align 8
  store i32 %0, ptr %4, align 4
  store ptr %1, ptr %5, align 8
  store ptr %2, ptr %6, align 8
  %7 = load ptr, ptr @os_sigaction, align 8
  %8 = icmp eq ptr %7, null
  br i1 %8, label %9, label %17

9:                                                ; preds = %3
  %10 = call ptr @dlsym(ptr noundef inttoptr (i64 -1 to ptr), ptr noundef @.str.4) #7
  store ptr %10, ptr @os_sigaction, align 8
  %11 = load ptr, ptr @os_sigaction, align 8
  %12 = icmp eq ptr %11, null
  br i1 %12, label %13, label %16

13:                                               ; preds = %9
  %14 = call ptr @dlerror() #7
  %15 = call i32 (ptr, ...) @printf(ptr noundef @.str.3, ptr noundef %14)
  call void @exit(i32 noundef 0) #8
  unreachable

16:                                               ; preds = %9
  br label %17

17:                                               ; preds = %16, %3
  %18 = load ptr, ptr @os_sigaction, align 8
  %19 = load i32, ptr %4, align 4
  %20 = load ptr, ptr %5, align 8
  %21 = load ptr, ptr %6, align 8
  %22 = call i32 %18(i32 noundef %19, ptr noundef %20, ptr noundef %21)
  ret i32 %22
}

; Function Attrs: nounwind uwtable
define internal void @signal_unlock() #0 {
  %1 = call i32 @pthread_mutex_unlock(ptr noundef @mutex) #7
  ret void
}

; Function Attrs: nounwind uwtable
define internal void @signal_lock() #0 {
  %1 = call i32 @pthread_mutex_lock(ptr noundef @mutex) #7
  %2 = load i8, ptr @jvm_signal_installing, align 1
  %3 = trunc i8 %2 to i1
  br i1 %3, label %4, label %17

4:                                                ; preds = %0
  %5 = load i64, ptr @tid, align 8
  %6 = call i64 @pthread_self() #6
  %7 = call i32 @pthread_equal(i64 noundef %5, i64 noundef %6) #6
  %8 = icmp eq i32 %7, 0
  br i1 %8, label %9, label %16

9:                                                ; preds = %4
  br label %10

10:                                               ; preds = %12, %9
  %11 = call i32 @pthread_cond_wait(ptr noundef @cond, ptr noundef @mutex)
  br label %12

12:                                               ; preds = %10
  %13 = load i8, ptr @jvm_signal_installing, align 1
  %14 = trunc i8 %13 to i1
  br i1 %14, label %10, label %15, !llvm.loop !6

15:                                               ; preds = %12
  br label %16

16:                                               ; preds = %15, %4
  br label %17

17:                                               ; preds = %16, %0
  ret void
}

; Function Attrs: nounwind uwtable
define i32 @sigaction(i32 noundef %0, ptr noundef %1, ptr noundef %2) #0 {
  %4 = alloca i32, align 4
  %5 = alloca i32, align 4
  %6 = alloca ptr, align 8
  %7 = alloca ptr, align 8
  %8 = alloca i32, align 4
  %9 = alloca i8, align 1
  %10 = alloca %struct.sigaction, align 8
  store i32 %0, ptr %5, align 4
  store ptr %1, ptr %6, align 8
  store ptr %2, ptr %7, align 8
  %11 = load i32, ptr %5, align 4
  %12 = icmp slt i32 %11, 0
  br i1 %12, label %16, label %13

13:                                               ; preds = %3
  %14 = load i32, ptr %5, align 4
  %15 = icmp sge i32 %14, 65
  br i1 %15, label %16, label %18

16:                                               ; preds = %13, %3
  %17 = call ptr @__errno_location() #6
  store i32 22, ptr %17, align 4
  store i32 -1, ptr %4, align 4
  br label %77

18:                                               ; preds = %13
  call void @signal_lock()
  %19 = load i32, ptr %5, align 4
  %20 = call i32 @sigismember(ptr noundef @jvmsigs, i32 noundef %19) #7
  %21 = icmp ne i32 %20, 0
  %22 = zext i1 %21 to i8
  store i8 %22, ptr %9, align 1
  %23 = load i8, ptr @jvm_signal_installed, align 1
  %24 = trunc i8 %23 to i1
  br i1 %24, label %25, label %45

25:                                               ; preds = %18
  %26 = load i8, ptr %9, align 1
  %27 = trunc i8 %26 to i1
  br i1 %27, label %28, label %45

28:                                               ; preds = %25
  %29 = load ptr, ptr %7, align 8
  %30 = icmp ne ptr %29, null
  br i1 %30, label %31, label %36

31:                                               ; preds = %28
  %32 = load ptr, ptr %7, align 8
  %33 = load i32, ptr %5, align 4
  %34 = sext i32 %33 to i64
  %35 = getelementptr inbounds [65 x %struct.sigaction], ptr @sact, i64 0, i64 %34
  call void @llvm.memcpy.p0.p0.i64(ptr align 8 %32, ptr align 8 %35, i64 152, i1 false)
  br label %36

36:                                               ; preds = %31, %28
  %37 = load ptr, ptr %6, align 8
  %38 = icmp ne ptr %37, null
  br i1 %38, label %39, label %44

39:                                               ; preds = %36
  %40 = load i32, ptr %5, align 4
  %41 = sext i32 %40 to i64
  %42 = getelementptr inbounds [65 x %struct.sigaction], ptr @sact, i64 0, i64 %41
  %43 = load ptr, ptr %6, align 8
  call void @llvm.memcpy.p0.p0.i64(ptr align 8 %42, ptr align 8 %43, i64 152, i1 false)
  br label %44

44:                                               ; preds = %39, %36
  call void @signal_unlock()
  store i32 0, ptr %4, align 4
  br label %77

45:                                               ; preds = %25, %18
  %46 = load i8, ptr @jvm_signal_installing, align 1
  %47 = trunc i8 %46 to i1
  br i1 %47, label %48, label %71

48:                                               ; preds = %45
  %49 = load i32, ptr %5, align 4
  %50 = load ptr, ptr %6, align 8
  %51 = call i32 @call_os_sigaction(i32 noundef %49, ptr noundef %50, ptr noundef %10)
  store i32 %51, ptr %8, align 4
  %52 = load i32, ptr %8, align 4
  %53 = icmp eq i32 %52, 0
  br i1 %53, label %54, label %69

54:                                               ; preds = %48
  %55 = load ptr, ptr %6, align 8
  %56 = icmp ne ptr %55, null
  br i1 %56, label %57, label %63

57:                                               ; preds = %54
  %58 = load i32, ptr %5, align 4
  %59 = sext i32 %58 to i64
  %60 = getelementptr inbounds [65 x %struct.sigaction], ptr @sact, i64 0, i64 %59
  call void @llvm.memcpy.p0.p0.i64(ptr align 8 %60, ptr align 8 %10, i64 152, i1 false)
  %61 = load i32, ptr %5, align 4
  %62 = call i32 @sigaddset(ptr noundef @jvmsigs, i32 noundef %61) #7
  br label %63

63:                                               ; preds = %57, %54
  %64 = load ptr, ptr %7, align 8
  %65 = icmp ne ptr %64, null
  br i1 %65, label %66, label %68

66:                                               ; preds = %63
  %67 = load ptr, ptr %7, align 8
  call void @llvm.memcpy.p0.p0.i64(ptr align 8 %67, ptr align 8 %10, i64 152, i1 false)
  br label %68

68:                                               ; preds = %66, %63
  br label %69

69:                                               ; preds = %68, %48
  call void @signal_unlock()
  %70 = load i32, ptr %8, align 4
  store i32 %70, ptr %4, align 4
  br label %77

71:                                               ; preds = %45
  %72 = load i32, ptr %5, align 4
  %73 = load ptr, ptr %6, align 8
  %74 = load ptr, ptr %7, align 8
  %75 = call i32 @call_os_sigaction(i32 noundef %72, ptr noundef %73, ptr noundef %74)
  store i32 %75, ptr %8, align 4
  call void @signal_unlock()
  %76 = load i32, ptr %8, align 4
  store i32 %76, ptr %4, align 4
  br label %77

77:                                               ; preds = %71, %69, %44, %16
  %78 = load i32, ptr %4, align 4
  ret i32 %78
}