; Function Attrs: nounwind uwtable
define i32 @sigaction(i32 noundef %0, ptr noundef %1, ptr noundef %2) local_unnamed_addr #0 {
  %4 = alloca %struct.sigaction, align 8
  %or.cond = icmp ugt i32 %0, 64
  br i1 %or.cond, label %5, label %7

5:                                                ; preds = %3
  %6 = tail call ptr @__errno_location() #8
  store i32 22, ptr %6, align 4
  br label %56

7:                                                ; preds = %3
  %8 = tail call i32 @pthread_mutex_lock(ptr noundef nonnull @mutex) #9
  %.b12.i = load i1, ptr @jvm_signal_installing, align 1
  br i1 %.b12.i, label %9, label %signal_lock.exit

9:                                                ; preds = %7
  %10 = load i64, ptr @tid, align 8
  %11 = tail call i64 @pthread_self() #8
  %12 = tail call i32 @pthread_equal(i64 noundef %10, i64 noundef %11) #8
  %13 = icmp eq i32 %12, 0
  br i1 %13, label %.preheader.i, label %signal_lock.exit

.preheader.i:                                     ; preds = %9, %.preheader.i
  %14 = tail call i32 @pthread_cond_wait(ptr noundef nonnull @cond, ptr noundef nonnull @mutex) #9
  %.b3.i = load i1, ptr @jvm_signal_installing, align 1
  br i1 %.b3.i, label %.preheader.i, label %signal_lock.exit, !llvm.loop !6

signal_lock.exit:                                 ; preds = %.preheader.i, %7, %9
  %15 = tail call i32 @sigismember(ptr noundef nonnull @jvmsigs, i32 noundef %0) #9
  %.b28 = load i1, ptr @jvm_signal_installed, align 1
  %.not = icmp ne i32 %15, 0
  %or.cond34.not = select i1 %.b28, i1 %.not, i1 false
  br i1 %or.cond34.not, label %16, label %26

16:                                               ; preds = %signal_lock.exit
  %.not32 = icmp eq ptr %2, null
  br i1 %.not32, label %20, label %17

17:                                               ; preds = %16
  %18 = zext nneg i32 %0 to i64
  %19 = getelementptr inbounds [65 x %struct.sigaction], ptr @sact, i64 0, i64 %18
  tail call void @llvm.memcpy.p0.p0.i64(ptr noundef nonnull align 8 dereferenceable(152) %2, ptr noundef nonnull align 8 dereferenceable(152) %19, i64 152, i1 false)
  br label %20

20:                                               ; preds = %17, %16
  %.not33 = icmp eq ptr %1, null
  br i1 %.not33, label %24, label %21

21:                                               ; preds = %20
  %22 = zext nneg i32 %0 to i64
  %23 = getelementptr inbounds [65 x %struct.sigaction], ptr @sact, i64 0, i64 %22
  tail call void @llvm.memcpy.p0.p0.i64(ptr noundef nonnull align 8 dereferenceable(152) %23, ptr noundef nonnull align 8 dereferenceable(152) %1, i64 152, i1 false)
  br label %24

24:                                               ; preds = %21, %20
  %25 = tail call i32 @pthread_mutex_unlock(ptr noundef nonnull @mutex) #9
  br label %56

26:                                               ; preds = %signal_lock.exit
  %.b2729 = load i1, ptr @jvm_signal_installing, align 1
  %27 = load ptr, ptr @os_sigaction, align 8
  %28 = icmp eq ptr %27, null
  br i1 %.b2729, label %29, label %47

29:                                               ; preds = %26
  br i1 %28, label %30, label %call_os_sigaction.exit

30:                                               ; preds = %29
  %31 = tail call ptr @dlsym(ptr noundef nonnull inttoptr (i64 -1 to ptr), ptr noundef nonnull @.str.4) #9
  store ptr %31, ptr @os_sigaction, align 8
  %32 = icmp eq ptr %31, null
  br i1 %32, label %33, label %call_os_sigaction.exit

33:                                               ; preds = %30
  %34 = tail call ptr @dlerror() #9
  %puts.i = tail call i32 @puts(ptr nonnull dereferenceable(1) %34)
  tail call void @exit(i32 noundef 0) #10
  unreachable

call_os_sigaction.exit:                           ; preds = %29, %30
  %35 = phi ptr [ %31, %30 ], [ %27, %29 ]
  %36 = call i32 %35(i32 noundef %0, ptr noundef %1, ptr noundef nonnull %4) #9
  %37 = icmp eq i32 %36, 0
  br i1 %37, label %38, label %45

38:                                               ; preds = %call_os_sigaction.exit
  %.not30 = icmp eq ptr %1, null
  br i1 %.not30, label %43, label %39

39:                                               ; preds = %38
  %40 = zext nneg i32 %0 to i64
  %41 = getelementptr inbounds [65 x %struct.sigaction], ptr @sact, i64 0, i64 %40
  call void @llvm.memcpy.p0.p0.i64(ptr noundef nonnull align 8 dereferenceable(152) %41, ptr noundef nonnull align 8 dereferenceable(152) %4, i64 152, i1 false)
  %42 = call i32 @sigaddset(ptr noundef nonnull @jvmsigs, i32 noundef %0) #9
  br label %43

43:                                               ; preds = %39, %38
  %.not31 = icmp eq ptr %2, null
  br i1 %.not31, label %45, label %44

44:                                               ; preds = %43
  call void @llvm.memcpy.p0.p0.i64(ptr noundef nonnull align 8 dereferenceable(152) %2, ptr noundef nonnull align 8 dereferenceable(152) %4, i64 152, i1 false)
  br label %45

45:                                               ; preds = %43, %44, %call_os_sigaction.exit
  %46 = call i32 @pthread_mutex_unlock(ptr noundef nonnull @mutex) #9
  br label %56

47:                                               ; preds = %26
  br i1 %28, label %48, label %call_os_sigaction.exit36

48:                                               ; preds = %47
  %49 = tail call ptr @dlsym(ptr noundef nonnull inttoptr (i64 -1 to ptr), ptr noundef nonnull @.str.4) #9
  store ptr %49, ptr @os_sigaction, align 8
  %50 = icmp eq ptr %49, null
  br i1 %50, label %51, label %call_os_sigaction.exit36

51:                                               ; preds = %48
  %52 = tail call ptr @dlerror() #9
  %puts.i35 = tail call i32 @puts(ptr nonnull dereferenceable(1) %52)
  tail call void @exit(i32 noundef 0) #10
  unreachable

call_os_sigaction.exit36:                         ; preds = %47, %48
  %53 = phi ptr [ %49, %48 ], [ %27, %47 ]
  %54 = tail call i32 %53(i32 noundef %0, ptr noundef %1, ptr noundef %2) #9
  %55 = tail call i32 @pthread_mutex_unlock(ptr noundef nonnull @mutex) #9
  br label %56

56:                                               ; preds = %call_os_sigaction.exit36, %45, %24, %5
  %.0 = phi i32 [ -1, %5 ], [ 0, %24 ], [ %36, %45 ], [ %54, %call_os_sigaction.exit36 ]
  ret i32 %.0
}